#include <math.h>
#include <stdio.h>
#include <stdlib.h>
#include <string.h>
#include <iostream>
using namespace std;

/*???????????(????????)?????????????????????????

????
?????????????????100?

????
????????????? */
int main()
{
	char a[1000];int b[100],j=1;
	cin.getline(a,1000,'\n');
	int c=strlen(a);
	for(int i=0;i<c;i++)
	{
		if(a[i]==' ')
		{
			 b[j]=i;j++;
		}
	}
  b[j]=c;
	for(int k=j-1;k>0;k--)
	{
		for(int i=b[k]+1;i<=b[k+1]-1;i++)
			cout<<a[i];
		cout<<" ";
	}
	for(int i=0;i<b[1];i++)
		cout<<a[i];
	return 0;
}
