; ModuleID = 'source-C-CXX/22/632.cpp'
source_filename = "source-C-CXX/22/632.cpp"
target datalayout = "e-m:e-p270:32:32-p271:32:32-p272:64:64-i64:64-f80:128-n8:16:32:64-S128"
target triple = "x86_64-pc-linux-gnu"

%"class.std::ios_base::Init" = type { i8 }
%"class.std::basic_istream" = type { i32 (...)**, i64, %"class.std::basic_ios" }
%"class.std::basic_ios" = type { %"class.std::ios_base", %"class.std::basic_ostream"*, i8, i8, %"class.std::basic_streambuf"*, %"class.std::ctype"*, %"class.std::num_put"*, %"class.std::num_get"* }
%"class.std::ios_base" = type { i32 (...)**, i64, i64, i32, i32, i32, %"struct.std::ios_base::_Callback_list"*, %"struct.std::ios_base::_Words", [8 x %"struct.std::ios_base::_Words"], i32, %"struct.std::ios_base::_Words"*, %"class.std::locale" }
%"struct.std::ios_base::_Callback_list" = type { %"struct.std::ios_base::_Callback_list"*, void (i32, %"class.std::ios_base"*, i32)*, i32, i32 }
%"struct.std::ios_base::_Words" = type { i8*, i64 }
%"class.std::locale" = type { %"class.std::locale::_Impl"* }
%"class.std::locale::_Impl" = type { i32, %"class.std::locale::facet"**, i64, %"class.std::locale::facet"**, i8** }
%"class.std::locale::facet" = type <{ i32 (...)**, i32, [4 x i8] }>
%"class.std::basic_ostream" = type { i32 (...)**, %"class.std::basic_ios" }
%"class.std::basic_streambuf" = type { i32 (...)**, i8*, i8*, i8*, i8*, i8*, i8*, %"class.std::locale" }
%"class.std::ctype" = type <{ %"class.std::locale::facet.base", [4 x i8], %struct.__locale_struct*, i8, [7 x i8], i32*, i32*, i16*, i8, [256 x i8], [256 x i8], i8, [6 x i8] }>
%"class.std::locale::facet.base" = type <{ i32 (...)**, i32 }>
%struct.__locale_struct = type { [13 x %struct.__locale_data*], i16*, i32*, i32*, [13 x i8*] }
%struct.__locale_data = type opaque
%"class.std::num_put" = type { %"class.std::locale::facet.base", [4 x i8] }
%"class.std::num_get" = type { %"class.std::locale::facet.base", [4 x i8] }

@_ZStL8__ioinit = internal global %"class.std::ios_base::Init" zeroinitializer, align 1
@__dso_handle = external hidden global i8
@_ZSt3cin = external global %"class.std::basic_istream", align 8
@_ZSt4cout = external global %"class.std::basic_ostream", align 8
@.str = private unnamed_addr constant [2 x i8] c" \00", align 1
@llvm.global_ctors = appending global [1 x { i32, void ()*, i8* }] [{ i32, void ()*, i8* } { i32 65535, void ()* @_GLOBAL__sub_I_632.cpp, i8* null }]

declare void @_ZNSt8ios_base4InitC1Ev(%"class.std::ios_base::Init"* nonnull align 1 dereferenceable(1)) unnamed_addr #0

; Function Attrs: nounwind
declare void @_ZNSt8ios_base4InitD1Ev(%"class.std::ios_base::Init"* nonnull align 1 dereferenceable(1)) unnamed_addr #1

; Function Attrs: nofree nounwind
declare i32 @__cxa_atexit(void (i8*)*, i8*, i8*) local_unnamed_addr #2

; Function Attrs: mustprogress norecurse sspstrong uwtable
define dso_local i32 @main() local_unnamed_addr #3 {
  %1 = alloca i8, align 1
  %2 = alloca i8, align 1
  %3 = alloca [1000 x i8], align 16
  %4 = alloca [100 x i32], align 16
  %5 = getelementptr inbounds [1000 x i8], [1000 x i8]* %3, i64 0, i64 0
  call void @llvm.lifetime.start.p0i8(i64 1000, i8* nonnull %5) #7
  %6 = bitcast [100 x i32]* %4 to i8*
  call void @llvm.lifetime.start.p0i8(i64 400, i8* nonnull %6) #7
  %7 = call nonnull align 8 dereferenceable(16) %"class.std::basic_istream"* @_ZNSi7getlineEPclc(%"class.std::basic_istream"* nonnull align 8 dereferenceable(16) @_ZSt3cin, i8* nonnull %5, i64 1000, i8 signext 10)
  %8 = call i64 @strlen(i8* noundef nonnull %5) #8
  %9 = trunc i64 %8 to i32
  %10 = icmp sgt i32 %9, 0
  br i1 %10, label %13, label %11

11:                                               ; preds = %0
  %12 = getelementptr inbounds [100 x i32], [100 x i32]* %4, i64 0, i64 1
  store i32 %9, i32* %12, align 4, !tbaa !5
  br label %56

13:                                               ; preds = %0
  %14 = and i64 %8, 4294967295
  %15 = and i64 %8, 1
  %16 = icmp eq i64 %14, 1
  br i1 %16, label %19, label %17

17:                                               ; preds = %13
  %18 = sub nsw i64 %14, %15
  br label %38

19:                                               ; preds = %96, %13
  %20 = phi i32 [ undef, %13 ], [ %97, %96 ]
  %21 = phi i64 [ 0, %13 ], [ %98, %96 ]
  %22 = phi i32 [ 1, %13 ], [ %97, %96 ]
  %23 = icmp eq i64 %15, 0
  br i1 %23, label %33, label %24

24:                                               ; preds = %19
  %25 = getelementptr inbounds [1000 x i8], [1000 x i8]* %3, i64 0, i64 %21
  %26 = load i8, i8* %25, align 1, !tbaa !9
  %27 = icmp eq i8 %26, 32
  br i1 %27, label %28, label %33

28:                                               ; preds = %24
  %29 = sext i32 %22 to i64
  %30 = getelementptr inbounds [100 x i32], [100 x i32]* %4, i64 0, i64 %29
  %31 = trunc i64 %21 to i32
  store i32 %31, i32* %30, align 4, !tbaa !5
  %32 = add nsw i32 %22, 1
  br label %33

33:                                               ; preds = %28, %24, %19
  %34 = phi i32 [ %20, %19 ], [ %32, %28 ], [ %22, %24 ]
  %35 = sext i32 %34 to i64
  %36 = getelementptr inbounds [100 x i32], [100 x i32]* %4, i64 0, i64 %35
  store i32 %9, i32* %36, align 4, !tbaa !5
  %37 = icmp sgt i32 %34, 1
  br i1 %37, label %62, label %56

38:                                               ; preds = %96, %17
  %39 = phi i64 [ 0, %17 ], [ %98, %96 ]
  %40 = phi i32 [ 1, %17 ], [ %97, %96 ]
  %41 = phi i64 [ %18, %17 ], [ %99, %96 ]
  %42 = getelementptr inbounds [1000 x i8], [1000 x i8]* %3, i64 0, i64 %39
  %43 = load i8, i8* %42, align 2, !tbaa !9
  %44 = icmp eq i8 %43, 32
  br i1 %44, label %45, label %50

45:                                               ; preds = %38
  %46 = sext i32 %40 to i64
  %47 = getelementptr inbounds [100 x i32], [100 x i32]* %4, i64 0, i64 %46
  %48 = trunc i64 %39 to i32
  store i32 %48, i32* %47, align 4, !tbaa !5
  %49 = add nsw i32 %40, 1
  br label %50

50:                                               ; preds = %38, %45
  %51 = phi i32 [ %49, %45 ], [ %40, %38 ]
  %52 = or i64 %39, 1
  %53 = getelementptr inbounds [1000 x i8], [1000 x i8]* %3, i64 0, i64 %52
  %54 = load i8, i8* %53, align 1, !tbaa !9
  %55 = icmp eq i8 %54, 32
  br i1 %55, label %91, label %96

56:                                               ; preds = %73, %11, %33
  %57 = getelementptr inbounds [100 x i32], [100 x i32]* %4, i64 0, i64 1
  %58 = load i32, i32* %57, align 4, !tbaa !5
  %59 = icmp sgt i32 %58, 0
  br i1 %59, label %60, label %83

60:                                               ; preds = %56
  %61 = zext i32 %58 to i64
  br label %84

62:                                               ; preds = %33, %73
  %63 = phi i32 [ %67, %73 ], [ %9, %33 ]
  %64 = phi i64 [ %65, %73 ], [ %35, %33 ]
  %65 = add nsw i64 %64, -1
  %66 = getelementptr inbounds [100 x i32], [100 x i32]* %4, i64 0, i64 %65
  %67 = load i32, i32* %66, align 4, !tbaa !5
  %68 = add i32 %63, -1
  %69 = icmp slt i32 %67, %68
  br i1 %69, label %70, label %73

70:                                               ; preds = %62
  %71 = sext i32 %67 to i64
  %72 = sext i32 %68 to i64
  br label %76

73:                                               ; preds = %76, %62
  %74 = call nonnull align 8 dereferenceable(8) %"class.std::basic_ostream"* @_ZSt16__ostream_insertIcSt11char_traitsIcEERSt13basic_ostreamIT_T0_ES6_PKS3_l(%"class.std::basic_ostream"* nonnull align 8 dereferenceable(8) @_ZSt4cout, i8* nonnull getelementptr inbounds ([2 x i8], [2 x i8]* @.str, i64 0, i64 0), i64 1)
  %75 = icmp sgt i64 %64, 2
  br i1 %75, label %62, label %56, !llvm.loop !10

76:                                               ; preds = %70, %76
  %77 = phi i64 [ %71, %70 ], [ %78, %76 ]
  %78 = add nsw i64 %77, 1
  %79 = getelementptr inbounds [1000 x i8], [1000 x i8]* %3, i64 0, i64 %78
  %80 = load i8, i8* %79, align 1, !tbaa !9
  call void @llvm.lifetime.start.p0i8(i64 1, i8* nonnull %2)
  store i8 %80, i8* %2, align 1, !tbaa !9
  %81 = call nonnull align 8 dereferenceable(8) %"class.std::basic_ostream"* @_ZSt16__ostream_insertIcSt11char_traitsIcEERSt13basic_ostreamIT_T0_ES6_PKS3_l(%"class.std::basic_ostream"* nonnull align 8 dereferenceable(8) @_ZSt4cout, i8* nonnull %2, i64 1)
  call void @llvm.lifetime.end.p0i8(i64 1, i8* nonnull %2)
  %82 = icmp eq i64 %78, %72
  br i1 %82, label %73, label %76, !llvm.loop !12

83:                                               ; preds = %84, %56
  call void @llvm.lifetime.end.p0i8(i64 400, i8* nonnull %6) #7
  call void @llvm.lifetime.end.p0i8(i64 1000, i8* nonnull %5) #7
  ret i32 0

84:                                               ; preds = %60, %84
  %85 = phi i64 [ 0, %60 ], [ %89, %84 ]
  %86 = getelementptr inbounds [1000 x i8], [1000 x i8]* %3, i64 0, i64 %85
  %87 = load i8, i8* %86, align 1, !tbaa !9
  call void @llvm.lifetime.start.p0i8(i64 1, i8* nonnull %1)
  store i8 %87, i8* %1, align 1, !tbaa !9
  %88 = call nonnull align 8 dereferenceable(8) %"class.std::basic_ostream"* @_ZSt16__ostream_insertIcSt11char_traitsIcEERSt13basic_ostreamIT_T0_ES6_PKS3_l(%"class.std::basic_ostream"* nonnull align 8 dereferenceable(8) @_ZSt4cout, i8* nonnull %1, i64 1)
  call void @llvm.lifetime.end.p0i8(i64 1, i8* nonnull %1)
  %89 = add nuw nsw i64 %85, 1
  %90 = icmp eq i64 %89, %61
  br i1 %90, label %83, label %84, !llvm.loop !13

91:                                               ; preds = %50
  %92 = sext i32 %51 to i64
  %93 = getelementptr inbounds [100 x i32], [100 x i32]* %4, i64 0, i64 %92
  %94 = trunc i64 %52 to i32
  store i32 %94, i32* %93, align 4, !tbaa !5
  %95 = add nsw i32 %51, 1
  br label %96

96:                                               ; preds = %91, %50
  %97 = phi i32 [ %95, %91 ], [ %51, %50 ]
  %98 = add nuw nsw i64 %39, 2
  %99 = add i64 %41, -2
  %100 = icmp eq i64 %99, 0
  br i1 %100, label %19, label %38, !llvm.loop !14
}

; Function Attrs: argmemonly mustprogress nofree nosync nounwind willreturn
declare void @llvm.lifetime.start.p0i8(i64 immarg, i8* nocapture) #4

declare nonnull align 8 dereferenceable(16) %"class.std::basic_istream"* @_ZNSi7getlineEPclc(%"class.std::basic_istream"* nonnull align 8 dereferenceable(16), i8*, i64, i8 signext) local_unnamed_addr #0

; Function Attrs: argmemonly mustprogress nofree nounwind readonly willreturn
declare i64 @strlen(i8* nocapture) local_unnamed_addr #5

; Function Attrs: argmemonly mustprogress nofree nosync nounwind willreturn
declare void @llvm.lifetime.end.p0i8(i64 immarg, i8* nocapture) #4

declare nonnull align 8 dereferenceable(8) %"class.std::basic_ostream"* @_ZSt16__ostream_insertIcSt11char_traitsIcEERSt13basic_ostreamIT_T0_ES6_PKS3_l(%"class.std::basic_ostream"* nonnull align 8 dereferenceable(8), i8*, i64) local_unnamed_addr #0

; Function Attrs: sspstrong uwtable
define internal void @_GLOBAL__sub_I_632.cpp() #6 section ".text.startup" {
  tail call void @_ZNSt8ios_base4InitC1Ev(%"class.std::ios_base::Init"* nonnull align 1 dereferenceable(1) @_ZStL8__ioinit)
  %1 = tail call i32 @__cxa_atexit(void (i8*)* bitcast (void (%"class.std::ios_base::Init"*)* @_ZNSt8ios_base4InitD1Ev to void (i8*)*), i8* getelementptr inbounds (%"class.std::ios_base::Init", %"class.std::ios_base::Init"* @_ZStL8__ioinit, i64 0, i32 0), i8* nonnull @__dso_handle) #7
  ret void
}


!llvm.module.flags = !{!0, !1, !2, !3}
!llvm.ident = !{!4}

!0 = !{i32 1, !"wchar_size", i32 4}
!1 = !{i32 7, !"PIC Level", i32 2}
!2 = !{i32 7, !"PIE Level", i32 2}
!3 = !{i32 7, !"uwtable", i32 1}
!4 = !{!"clang version 13.0.0"}
!5 = !{!6, !6, i64 0}
!6 = !{!"int", !7, i64 0}
!7 = !{!"omnipotent char", !8, i64 0}
!8 = !{!"Simple C++ TBAA"}
!9 = !{!7, !7, i64 0}
!10 = distinct !{!10, !11}
!11 = !{!"llvm.loop.mustprogress"}
!12 = distinct !{!12, !11}
!13 = distinct !{!13, !11}
!14 = distinct !{!14, !11}
